target datalayout = "e-m:e-p270:32:32-p271:32:32-p272:64:64-i64:64-i128:128-f80:128-n8:16:32:64-S128"
target triple = "x86_64-pc-linux-gnu"

; Function Attrs: nounwind uwtable
define hidden noalias ptr @mi_aligned_alloc(i64 noundef %0, i64 noundef %1) #0 {
  %3 = alloca ptr, align 8
  %4 = alloca i64, align 8
  %5 = alloca i64, align 8
  %6 = alloca ptr, align 8
  store i64 %0, ptr %4, align 8, !tbaa !7
  store i64 %1, ptr %5, align 8, !tbaa !7
  %7 = load i64, ptr %5, align 8, !tbaa !7
  %8 = load i64, ptr %4, align 8, !tbaa !7
  %9 = sub i64 %8, 1
  %10 = and i64 %7, %9
  %11 = icmp ne i64 %10, 0
  %12 = xor i1 %11, true
  %13 = xor i1 %12, true
  %14 = zext i1 %13 to i32
  %15 = sext i32 %14 to i64
  %16 = call i64 @llvm.expect.i64(i64 %15, i64 0)
  %17 = icmp ne i64 %16, 0
  br i1 %17, label %18, label %19

18:                                               ; preds = %2
  store ptr null, ptr %3, align 8
  br label %24

19:                                               ; preds = %2
  call void @llvm.lifetime.start.p0(i64 8, ptr %6) #9
  %20 = load i64, ptr %5, align 8, !tbaa !7
  %21 = load i64, ptr %4, align 8, !tbaa !7
  %22 = call noalias ptr @mi_malloc_aligned(i64 noundef %20, i64 noundef %21)
  store ptr %22, ptr %6, align 8, !tbaa !3
  %23 = load ptr, ptr %6, align 8, !tbaa !3
  store ptr %23, ptr %3, align 8
  call void @llvm.lifetime.end.p0(i64 8, ptr %6) #9
  br label %24

24:                                               ; preds = %19, %18
  %25 = load ptr, ptr %3, align 8
  ret ptr %25
}