; Function Attrs: nounwind uwtable
define hidden noalias ptr @mi_aligned_alloc(i64 noundef %0, i64 noundef %1) local_unnamed_addr #0 {
  %3 = add i64 %0, -1
  %4 = and i64 %1, %3
  %.not = icmp eq i64 %4, 0
  br i1 %.not, label %5, label %7, !prof !7

5:                                                ; preds = %2
  %6 = tail call noalias ptr @mi_malloc_aligned(i64 noundef %1, i64 noundef %0) #8
  br label %7

7:                                                ; preds = %2, %5
  %.0 = phi ptr [ %6, %5 ], [ null, %2 ]
  ret ptr %.0
}